target datalayout = "e-m:e-p270:32:32-p271:32:32-p272:64:64-i64:64-i128:128-f80:128-n8:16:32:64-S128"
target triple = "x86_64-pc-linux-gnu"

%struct.decode_as_s = type { ptr, ptr, i32, i32, ptr, ptr, ptr, ptr, ptr, ptr, ptr }

@.str.1052 = private unnamed_addr constant [17 x i8] c"Message Decoding\00", align 1
@.str.1053 = private unnamed_addr constant [22 x i8] c"amqp_message_decoding\00", align 1
@amqp_message_decodes = internal global ptr null, align 8
@num_amqp_message_decodes = internal global i32 0, align 4
@.str.1054 = private unnamed_addr constant [22 x i8] c"ChamqpMessageDecoding\00", align 1
@proto_register_amqp.amqp_da = internal global %struct.decode_as_s { ptr @.str.1055, ptr @.str.1056, i32 1, i32 0, ptr @proto_register_amqp.amqp_da_values, ptr null, ptr null, ptr @decode_as_default_populate_list, ptr @decode_as_default_reset, ptr @decode_as_default_change, ptr null }, align 8
@.str.1055 = private unnamed_addr constant [5 x i8] c"amqp\00", align 1
@.str.1056 = private unnamed_addr constant [13 x i8] c"amqp.version\00", align 1
@.str.1057 = private unnamed_addr constant [34 x i8] c"Advanced Message Queuing Protocol\00", align 1
@.str.1058 = private unnamed_addr constant [5 x i8] c"AMQP\00", align 1
@proto_amqp = internal global i32 0, align 4
@.str.1059 = private unnamed_addr constant [17 x i8] c"AMQP Version 0.9\00", align 1
@.str.1060 = private unnamed_addr constant [12 x i8] c"Version 0.9\00", align 1
@.str.1061 = private unnamed_addr constant [18 x i8] c"amqp.version.v0_9\00", align 1
@proto_amqpv0_9 = internal global i32 0, align 4
@.str.1062 = private unnamed_addr constant [18 x i8] c"AMQP Version 0.10\00", align 1
@.str.1063 = private unnamed_addr constant [13 x i8] c"Version 0.10\00", align 1
@.str.1064 = private unnamed_addr constant [19 x i8] c"amqp.version.v0_10\00", align 1
@proto_amqpv0_10 = internal global i32 0, align 4
@.str.1065 = private unnamed_addr constant [17 x i8] c"AMQP Version 1.0\00", align 1
@.str.1066 = private unnamed_addr constant [12 x i8] c"Version 1.0\00", align 1
@.str.1067 = private unnamed_addr constant [18 x i8] c"amqp.version.v1_0\00", align 1
@proto_amqpv1_0 = internal global i32 0, align 4
@amqp_tcp_handle = internal global ptr null, align 8
@.str.1068 = private unnamed_addr constant [14 x i8] c"AMQP versions\00", align 1
@version_table = internal global ptr null, align 8
@.str.1069 = private unnamed_addr constant [9 x i8] c"tls.port\00", align 1
@.str.1070 = private unnamed_addr constant [25 x i8] c"AMQPS listening TCP Port\00", align 1
@.str.1071 = private unnamed_addr constant [74 x i8] c"Set the TCP port for AMQP over SSL/TLS(if other than the default of 5671)\00", align 1
@amqps_port = internal global i32 5671, align 4
@.str.1072 = private unnamed_addr constant [9 x i8] c"ssl.port\00", align 1
@.str.1073 = private unnamed_addr constant [21 x i8] c"message_decode_table\00", align 1
@.str.1074 = private unnamed_addr constant [78 x i8] c"A table that enumerates custom message decodes to be used for a certain topic\00", align 1

; Function Attrs: null_pointer_is_valid sspstrong uwtable
define hidden void @proto_register_amqp() #0 {
  %1 = alloca ptr, align 8
  %2 = alloca ptr, align 8
  %3 = alloca ptr, align 8
  call void @llvm.lifetime.start.p0(i64 8, ptr %1) #11
  %4 = call ptr @uat_new(ptr noundef @.str.1052, i64 noundef 48, ptr noundef @.str.1053, i1 noundef zeroext true, ptr noundef @amqp_message_decodes, ptr noundef @num_amqp_message_decodes, i32 noundef 1, ptr noundef @.str.1054, ptr noundef @amqp_message_decode_copy_cb, ptr noundef @amqp_message_decode_update_cb, ptr noundef @amqp_message_decode_free_cb, ptr noundef null, ptr noundef null, ptr noundef @proto_register_amqp.amqp_message_decode_flds)
  store ptr %4, ptr %1, align 8
  call void @llvm.lifetime.start.p0(i64 8, ptr %2) #11
  call void @llvm.lifetime.start.p0(i64 8, ptr %3) #11
  %5 = call i32 @proto_register_protocol(ptr noundef @.str.1057, ptr noundef @.str.1058, ptr noundef @.str.1055)
  store i32 %5, ptr @proto_amqp, align 4
  %6 = load i32, ptr @proto_amqp, align 4
  %7 = call i32 @proto_register_protocol_in_name_only(ptr noundef @.str.1059, ptr noundef @.str.1060, ptr noundef @.str.1061, i32 noundef %6, i32 noundef 30)
  store i32 %7, ptr @proto_amqpv0_9, align 4
  %8 = load i32, ptr @proto_amqp, align 4
  %9 = call i32 @proto_register_protocol_in_name_only(ptr noundef @.str.1062, ptr noundef @.str.1063, ptr noundef @.str.1064, i32 noundef %8, i32 noundef 30)
  store i32 %9, ptr @proto_amqpv0_10, align 4
  %10 = load i32, ptr @proto_amqp, align 4
  %11 = call i32 @proto_register_protocol_in_name_only(ptr noundef @.str.1065, ptr noundef @.str.1066, ptr noundef @.str.1067, i32 noundef %10, i32 noundef 30)
  store i32 %11, ptr @proto_amqpv1_0, align 4
  %12 = load i32, ptr @proto_amqp, align 4
  %13 = call ptr @register_dissector(ptr noundef @.str.1055, ptr noundef @dissect_amqp, i32 noundef %12)
  store ptr %13, ptr @amqp_tcp_handle, align 8
  %14 = load i32, ptr @proto_amqp, align 4
  call void @proto_register_field_array(i32 noundef %14, ptr noundef @proto_register_amqp.hf, i32 noundef 655)
  call void @proto_register_subtree_array(ptr noundef @proto_register_amqp.ett, i32 noundef 13)
  %15 = load i32, ptr @proto_amqp, align 4
  %16 = call ptr @expert_register_protocol(i32 noundef %15)
  store ptr %16, ptr %2, align 8
  %17 = load ptr, ptr %2, align 8
  call void @expert_register_field_array(ptr noundef %17, ptr noundef @proto_register_amqp.ei, i32 noundef 29)
  %18 = load i32, ptr @proto_amqp, align 4
  %19 = call ptr @register_dissector_table(ptr noundef @.str.1056, ptr noundef @.str.1068, i32 noundef %18, i32 noundef 4, i32 noundef 1)
  store ptr %19, ptr @version_table, align 8
  %20 = load i32, ptr @proto_amqp, align 4
  %21 = call ptr @prefs_register_protocol(i32 noundef %20, ptr noundef @proto_reg_handoff_amqp)
  store ptr %21, ptr %3, align 8
  %22 = load ptr, ptr %3, align 8
  call void @prefs_register_uint_preference(ptr noundef %22, ptr noundef @.str.1069, ptr noundef @.str.1070, ptr noundef @.str.1071, i32 noundef 10, ptr noundef @amqps_port)
  %23 = load ptr, ptr %3, align 8
  call void @prefs_register_obsolete_preference(ptr noundef %23, ptr noundef @.str.1072)
  call void @register_decode_as(ptr noundef @proto_register_amqp.amqp_da)
  %24 = load ptr, ptr %3, align 8
  %25 = load ptr, ptr %1, align 8
  call void @prefs_register_uat_preference(ptr noundef %24, ptr noundef @.str.1073, ptr noundef @.str.1052, ptr noundef @.str.1074, ptr noundef %25)
  call void @llvm.lifetime.end.p0(i64 8, ptr %3) #11
  call void @llvm.lifetime.end.p0(i64 8, ptr %2) #11
  call void @llvm.lifetime.end.p0(i64 8, ptr %1) #11
  ret void
}