; Function Attrs: null_pointer_is_valid sspstrong uwtable
define hidden void @proto_register_amqp() local_unnamed_addr #0 {
  %1 = tail call ptr @uat_new(ptr noundef nonnull @.str.1052, i64 noundef 48, ptr noundef nonnull @.str.1053, i1 noundef zeroext true, ptr noundef nonnull @amqp_message_decodes, ptr noundef nonnull @num_amqp_message_decodes, i32 noundef 1, ptr noundef nonnull @.str.1054, ptr noundef nonnull @amqp_message_decode_copy_cb, ptr noundef nonnull @amqp_message_decode_update_cb, ptr noundef nonnull @amqp_message_decode_free_cb, ptr noundef null, ptr noundef null, ptr noundef nonnull @proto_register_amqp.amqp_message_decode_flds)
  %2 = tail call i32 @proto_register_protocol(ptr noundef nonnull @.str.1057, ptr noundef nonnull @.str.1058, ptr noundef nonnull @.str.1055)
  store i32 %2, ptr @proto_amqp, align 4
  %3 = tail call i32 @proto_register_protocol_in_name_only(ptr noundef nonnull @.str.1059, ptr noundef nonnull @.str.1060, ptr noundef nonnull @.str.1061, i32 noundef %2, i32 noundef 30)
  store i32 %3, ptr @proto_amqpv0_9, align 4
  %4 = load i32, ptr @proto_amqp, align 4
  %5 = tail call i32 @proto_register_protocol_in_name_only(ptr noundef nonnull @.str.1062, ptr noundef nonnull @.str.1063, ptr noundef nonnull @.str.1064, i32 noundef %4, i32 noundef 30)
  store i32 %5, ptr @proto_amqpv0_10, align 4
  %6 = load i32, ptr @proto_amqp, align 4
  %7 = tail call i32 @proto_register_protocol_in_name_only(ptr noundef nonnull @.str.1065, ptr noundef nonnull @.str.1066, ptr noundef nonnull @.str.1067, i32 noundef %6, i32 noundef 30)
  store i32 %7, ptr @proto_amqpv1_0, align 4
  %8 = load i32, ptr @proto_amqp, align 4
  %9 = tail call ptr @register_dissector(ptr noundef nonnull @.str.1055, ptr noundef nonnull @dissect_amqp, i32 noundef %8)
  store ptr %9, ptr @amqp_tcp_handle, align 8
  %10 = load i32, ptr @proto_amqp, align 4
  tail call void @proto_register_field_array(i32 noundef %10, ptr noundef nonnull @proto_register_amqp.hf, i32 noundef 655)
  tail call void @proto_register_subtree_array(ptr noundef nonnull @proto_register_amqp.ett, i32 noundef 13)
  %11 = load i32, ptr @proto_amqp, align 4
  %12 = tail call ptr @expert_register_protocol(i32 noundef %11)
  tail call void @expert_register_field_array(ptr noundef %12, ptr noundef nonnull @proto_register_amqp.ei, i32 noundef 29)
  %13 = load i32, ptr @proto_amqp, align 4
  %14 = tail call ptr @register_dissector_table(ptr noundef nonnull @.str.1056, ptr noundef nonnull @.str.1068, i32 noundef %13, i32 noundef 4, i32 noundef 1)
  store ptr %14, ptr @version_table, align 8
  %15 = load i32, ptr @proto_amqp, align 4
  %16 = tail call ptr @prefs_register_protocol(i32 noundef %15, ptr noundef nonnull @proto_reg_handoff_amqp)
  tail call void @prefs_register_uint_preference(ptr noundef %16, ptr noundef nonnull @.str.1069, ptr noundef nonnull @.str.1070, ptr noundef nonnull @.str.1071, i32 noundef 10, ptr noundef nonnull @amqps_port)
  tail call void @prefs_register_obsolete_preference(ptr noundef %16, ptr noundef nonnull @.str.1072)
  tail call void @register_decode_as(ptr noundef nonnull @proto_register_amqp.amqp_da)
  tail call void @prefs_register_uat_preference(ptr noundef %16, ptr noundef nonnull @.str.1073, ptr noundef nonnull @.str.1052, ptr noundef nonnull @.str.1074, ptr noundef %1)
  ret void
}